target datalayout = "e-m:e-p270:32:32-p271:32:32-p272:64:64-i64:64-i128:128-f80:128-n8:16:32:64-S128"
target triple = "x86_64-pc-linux-gnu"

%struct._N_VectorContent_Serial = type { i64, i32, ptr }
%struct._generic_N_Vector = type { ptr, ptr }

; Function Attrs: nounwind uwtable
define double @N_VWrmsNormMask_Serial(ptr noundef %0, ptr noundef %1, ptr noundef %2) #0 {
  %4 = alloca ptr, align 8
  %5 = alloca ptr, align 8
  %6 = alloca ptr, align 8
  %7 = alloca i64, align 8
  %8 = alloca i64, align 8
  %9 = alloca double, align 8
  %10 = alloca double, align 8
  %11 = alloca ptr, align 8
  %12 = alloca ptr, align 8
  %13 = alloca ptr, align 8
  store ptr %0, ptr %4, align 8, !tbaa !7
  store ptr %1, ptr %5, align 8, !tbaa !7
  store ptr %2, ptr %6, align 8, !tbaa !7
  call void @llvm.lifetime.start.p0(i64 8, ptr %7) #6
  call void @llvm.lifetime.start.p0(i64 8, ptr %8) #6
  call void @llvm.lifetime.start.p0(i64 8, ptr %9) #6
  call void @llvm.lifetime.start.p0(i64 8, ptr %10) #6
  call void @llvm.lifetime.start.p0(i64 8, ptr %11) #6
  call void @llvm.lifetime.start.p0(i64 8, ptr %12) #6
  call void @llvm.lifetime.start.p0(i64 8, ptr %13) #6
  store double 0.000000e+00, ptr %9, align 8, !tbaa !52
  store ptr null, ptr %13, align 8, !tbaa !49
  store ptr null, ptr %12, align 8, !tbaa !49
  store ptr null, ptr %11, align 8, !tbaa !49
  %14 = load ptr, ptr %4, align 8, !tbaa !7
  %15 = getelementptr inbounds nuw %struct._generic_N_Vector, ptr %14, i32 0, i32 0
  %16 = load ptr, ptr %15, align 8, !tbaa !46
  %17 = getelementptr inbounds nuw %struct._N_VectorContent_Serial, ptr %16, i32 0, i32 0
  %18 = load i64, ptr %17, align 8, !tbaa !40
  store i64 %18, ptr %8, align 8, !tbaa !3
  %19 = load ptr, ptr %4, align 8, !tbaa !7
  %20 = getelementptr inbounds nuw %struct._generic_N_Vector, ptr %19, i32 0, i32 0
  %21 = load ptr, ptr %20, align 8, !tbaa !46
  %22 = getelementptr inbounds nuw %struct._N_VectorContent_Serial, ptr %21, i32 0, i32 2
  %23 = load ptr, ptr %22, align 8, !tbaa !45
  store ptr %23, ptr %11, align 8, !tbaa !49
  %24 = load ptr, ptr %5, align 8, !tbaa !7
  %25 = getelementptr inbounds nuw %struct._generic_N_Vector, ptr %24, i32 0, i32 0
  %26 = load ptr, ptr %25, align 8, !tbaa !46
  %27 = getelementptr inbounds nuw %struct._N_VectorContent_Serial, ptr %26, i32 0, i32 2
  %28 = load ptr, ptr %27, align 8, !tbaa !45
  store ptr %28, ptr %12, align 8, !tbaa !49
  %29 = load ptr, ptr %6, align 8, !tbaa !7
  %30 = getelementptr inbounds nuw %struct._generic_N_Vector, ptr %29, i32 0, i32 0
  %31 = load ptr, ptr %30, align 8, !tbaa !46
  %32 = getelementptr inbounds nuw %struct._N_VectorContent_Serial, ptr %31, i32 0, i32 2
  %33 = load ptr, ptr %32, align 8, !tbaa !45
  store ptr %33, ptr %13, align 8, !tbaa !49
  store i64 0, ptr %7, align 8, !tbaa !3
  br label %34

34:                                               ; preds = %59, %3
  %35 = load i64, ptr %7, align 8, !tbaa !3
  %36 = load i64, ptr %8, align 8, !tbaa !3
  %37 = icmp slt i64 %35, %36
  br i1 %37, label %38, label %62

38:                                               ; preds = %34
  %39 = load ptr, ptr %13, align 8, !tbaa !49
  %40 = load i64, ptr %7, align 8, !tbaa !3
  %41 = getelementptr inbounds double, ptr %39, i64 %40
  %42 = load double, ptr %41, align 8, !tbaa !52
  %43 = fcmp ogt double %42, 0.000000e+00
  br i1 %43, label %44, label %58

44:                                               ; preds = %38
  %45 = load ptr, ptr %11, align 8, !tbaa !49
  %46 = load i64, ptr %7, align 8, !tbaa !3
  %47 = getelementptr inbounds double, ptr %45, i64 %46
  %48 = load double, ptr %47, align 8, !tbaa !52
  %49 = load ptr, ptr %12, align 8, !tbaa !49
  %50 = load i64, ptr %7, align 8, !tbaa !3
  %51 = getelementptr inbounds double, ptr %49, i64 %50
  %52 = load double, ptr %51, align 8, !tbaa !52
  %53 = fmul double %48, %52
  store double %53, ptr %10, align 8, !tbaa !52
  %54 = load double, ptr %10, align 8, !tbaa !52
  %55 = load double, ptr %10, align 8, !tbaa !52
  %56 = load double, ptr %9, align 8, !tbaa !52
  %57 = call double @llvm.fmuladd.f64(double %54, double %55, double %56)
  store double %57, ptr %9, align 8, !tbaa !52
  br label %58

58:                                               ; preds = %44, %38
  br label %59

59:                                               ; preds = %58
  %60 = load i64, ptr %7, align 8, !tbaa !3
  %61 = add nsw i64 %60, 1
  store i64 %61, ptr %7, align 8, !tbaa !3
  br label %34, !llvm.loop !66

62:                                               ; preds = %34
  %63 = load double, ptr %9, align 8, !tbaa !52
  %64 = load i64, ptr %8, align 8, !tbaa !3
  %65 = sitofp i64 %64 to double
  %66 = fdiv double %63, %65
  %67 = call double @SUNRsqrt(double noundef %66)
  call void @llvm.lifetime.end.p0(i64 8, ptr %13) #6
  call void @llvm.lifetime.end.p0(i64 8, ptr %12) #6
  call void @llvm.lifetime.end.p0(i64 8, ptr %11) #6
  call void @llvm.lifetime.end.p0(i64 8, ptr %10) #6
  call void @llvm.lifetime.end.p0(i64 8, ptr %9) #6
  call void @llvm.lifetime.end.p0(i64 8, ptr %8) #6
  call void @llvm.lifetime.end.p0(i64 8, ptr %7) #6
  ret double %67
}