; Function Attrs: nounwind uwtable
define double @N_VWrmsNormMask_Serial(ptr noundef readonly captures(none) %0, ptr noundef readonly captures(none) %1, ptr noundef readonly captures(none) %2) #9 {
  %4 = load ptr, ptr %0, align 8, !tbaa !39
  %5 = load i64, ptr %4, align 8, !tbaa !32
  %6 = getelementptr inbounds nuw i8, ptr %4, i64 16
  %7 = load ptr, ptr %6, align 8, !tbaa !38
  %8 = load ptr, ptr %1, align 8, !tbaa !39
  %9 = getelementptr inbounds nuw i8, ptr %8, i64 16
  %10 = load ptr, ptr %9, align 8, !tbaa !38
  %11 = load ptr, ptr %2, align 8, !tbaa !39
  %12 = getelementptr inbounds nuw i8, ptr %11, i64 16
  %13 = load ptr, ptr %12, align 8, !tbaa !38
  %14 = icmp sgt i64 %5, 0
  br i1 %14, label %.lr.ph, label %._crit_edge

.lr.ph:                                           ; preds = %3, %25
  %.020 = phi i64 [ %26, %25 ], [ 0, %3 ]
  %.01719 = phi double [ %.1, %25 ], [ 0.000000e+00, %3 ]
  %15 = getelementptr inbounds nuw double, ptr %13, i64 %.020
  %16 = load double, ptr %15, align 8, !tbaa !44
  %17 = fcmp ogt double %16, 0.000000e+00
  br i1 %17, label %18, label %25

18:                                               ; preds = %.lr.ph
  %19 = getelementptr inbounds nuw double, ptr %7, i64 %.020
  %20 = load double, ptr %19, align 8, !tbaa !44
  %21 = getelementptr inbounds nuw double, ptr %10, i64 %.020
  %22 = load double, ptr %21, align 8, !tbaa !44
  %23 = fmul double %20, %22
  %24 = tail call double @llvm.fmuladd.f64(double %23, double %23, double %.01719)
  br label %25

25:                                               ; preds = %.lr.ph, %18
  %.1 = phi double [ %24, %18 ], [ %.01719, %.lr.ph ]
  %26 = add nuw nsw i64 %.020, 1
  %exitcond.not = icmp eq i64 %26, %5
  br i1 %exitcond.not, label %._crit_edge, label %.lr.ph, !llvm.loop !69

._crit_edge:                                      ; preds = %25, %3
  %.017.lcssa = phi double [ 0.000000e+00, %3 ], [ %.1, %25 ]
  %27 = sitofp i64 %5 to double
  %28 = fdiv double %.017.lcssa, %27
  %29 = tail call double @SUNRsqrt(double noundef %28) #18
  ret double %29
}